; ModuleID = '12/66.c'
source_filename = "12/66.c"
target datalayout = "e-m:e-p270:32:32-p271:32:32-p272:64:64-i64:64-f80:128-n8:16:32:64-S128"
target triple = "x86_64-pc-linux-gnu"

@.str = private unnamed_addr constant [3 x i8] c"%d\00", align 1
@.str.1 = private unnamed_addr constant [4 x i8] c"%d\0A\00", align 1

; Function Attrs: noinline nounwind uwtable
define dso_local i32 @main() #0 {
  %1 = alloca i32, align 4
  %2 = alloca [10000 x i32], align 16
  %3 = alloca [15 x i32], align 16
  %4 = alloca i32*, align 8
  %5 = alloca i32, align 4
  %6 = alloca i32, align 4
  %7 = alloca i32, align 4
  %8 = alloca i32, align 4
  %9 = alloca i32, align 4
  %10 = alloca i32, align 4
  %11 = alloca i32, align 4
  %12 = alloca i32, align 4
  store i32 0, i32* %1, align 4
  store i32 0, i32* %7, align 4
  store i32 0, i32* %9, align 4
  store i32 0, i32* %10, align 4
  %13 = getelementptr inbounds [10000 x i32], [10000 x i32]* %2, i64 0, i64 0
  store i32* %13, i32** %4, align 8
  store i32 0, i32* %5, align 4
  br label %14

14:                                               ; preds = %35, %0
  %15 = load i32, i32* %5, align 4
  %16 = sext i32 %15 to i64
  %17 = getelementptr inbounds [10000 x i32], [10000 x i32]* %2, i64 0, i64 %16
  %18 = call i32 (i8*, ...) @__isoc99_scanf(i8* getelementptr inbounds ([3 x i8], [3 x i8]* @.str, i64 0, i64 0), i32* %17)
  %19 = load i32, i32* %5, align 4
  %20 = sext i32 %19 to i64
  %21 = getelementptr inbounds [10000 x i32], [10000 x i32]* %2, i64 0, i64 %20
  %22 = load i32, i32* %21, align 4
  %23 = icmp eq i32 %22, 0
  br i1 %23, label %24, label %27

24:                                               ; preds = %14
  %25 = load i32, i32* %9, align 4
  %26 = add nsw i32 %25, 1
  store i32 %26, i32* %9, align 4
  br label %27

27:                                               ; preds = %24, %14
  %28 = load i32, i32* %5, align 4
  %29 = sext i32 %28 to i64
  %30 = getelementptr inbounds [10000 x i32], [10000 x i32]* %2, i64 0, i64 %29
  %31 = load i32, i32* %30, align 4
  %32 = icmp eq i32 %31, -1
  br i1 %32, label %33, label %34

33:                                               ; preds = %27
  br label %38

34:                                               ; preds = %27
  br label %35

35:                                               ; preds = %34
  %36 = load i32, i32* %5, align 4
  %37 = add nsw i32 %36, 1
  store i32 %37, i32* %5, align 4
  br label %14

38:                                               ; preds = %33
  br label %39

39:                                               ; preds = %109, %38
  %40 = load i32, i32* %9, align 4
  %41 = icmp sgt i32 %40, 0
  br i1 %41, label %42, label %114

42:                                               ; preds = %39
  store i32 0, i32* %5, align 4
  store i32 0, i32* %12, align 4
  br label %43

43:                                               ; preds = %59, %42
  %44 = load i32, i32* %7, align 4
  %45 = sext i32 %44 to i64
  %46 = getelementptr inbounds [10000 x i32], [10000 x i32]* %2, i64 0, i64 %45
  %47 = load i32, i32* %46, align 4
  %48 = icmp ne i32 %47, 0
  br i1 %48, label %49, label %64

49:                                               ; preds = %43
  %50 = load i32, i32* %7, align 4
  %51 = sext i32 %50 to i64
  %52 = getelementptr inbounds [10000 x i32], [10000 x i32]* %2, i64 0, i64 %51
  %53 = load i32, i32* %52, align 4
  %54 = load i32, i32* %5, align 4
  %55 = sext i32 %54 to i64
  %56 = getelementptr inbounds [15 x i32], [15 x i32]* %3, i64 0, i64 %55
  store i32 %53, i32* %56, align 4
  %57 = load i32, i32* %12, align 4
  %58 = add nsw i32 %57, 1
  store i32 %58, i32* %12, align 4
  br label %59

59:                                               ; preds = %49
  %60 = load i32, i32* %5, align 4
  %61 = add nsw i32 %60, 1
  store i32 %61, i32* %5, align 4
  %62 = load i32, i32* %7, align 4
  %63 = add nsw i32 %62, 1
  store i32 %63, i32* %7, align 4
  br label %43

64:                                               ; preds = %43
  %65 = load i32, i32* %7, align 4
  %66 = add nsw i32 %65, 1
  store i32 %66, i32* %7, align 4
  store i32 0, i32* %8, align 4
  store i32 0, i32* %11, align 4
  br label %67

67:                                               ; preds = %106, %64
  %68 = load i32, i32* %11, align 4
  %69 = load i32, i32* %12, align 4
  %70 = icmp slt i32 %68, %69
  br i1 %70, label %71, label %109

71:                                               ; preds = %67
  store i32 0, i32* %6, align 4
  br label %72

72:                                               ; preds = %102, %71
  %73 = load i32, i32* %6, align 4
  %74 = load i32, i32* %12, align 4
  %75 = icmp slt i32 %73, %74
  br i1 %75, label %76, label %105

76:                                               ; preds = %72
  %77 = load i32, i32* %11, align 4
  %78 = sext i32 %77 to i64
  %79 = getelementptr inbounds [15 x i32], [15 x i32]* %3, i64 0, i64 %78
  %80 = load i32, i32* %79, align 4
  %81 = load i32, i32* %6, align 4
  %82 = sext i32 %81 to i64
  %83 = getelementptr inbounds [15 x i32], [15 x i32]* %3, i64 0, i64 %82
  %84 = load i32, i32* %83, align 4
  %85 = sdiv i32 %80, %84
  %86 = icmp eq i32 %85, 2
  br i1 %86, label %87, label %101

87:                                               ; preds = %76
  %88 = load i32, i32* %11, align 4
  %89 = sext i32 %88 to i64
  %90 = getelementptr inbounds [15 x i32], [15 x i32]* %3, i64 0, i64 %89
  %91 = load i32, i32* %90, align 4
  %92 = load i32, i32* %6, align 4
  %93 = sext i32 %92 to i64
  %94 = getelementptr inbounds [15 x i32], [15 x i32]* %3, i64 0, i64 %93
  %95 = load i32, i32* %94, align 4
  %96 = srem i32 %91, %95
  %97 = icmp eq i32 %96, 0
  br i1 %97, label %98, label %101

98:                                               ; preds = %87
  %99 = load i32, i32* %8, align 4
  %100 = add nsw i32 %99, 1
  store i32 %100, i32* %8, align 4
  br label %101

101:                                              ; preds = %98, %87, %76
  br label %102

102:                                              ; preds = %101
  %103 = load i32, i32* %6, align 4
  %104 = add nsw i32 %103, 1
  store i32 %104, i32* %6, align 4
  br label %72

105:                                              ; preds = %72
  br label %106

106:                                              ; preds = %105
  %107 = load i32, i32* %11, align 4
  %108 = add nsw i32 %107, 1
  store i32 %108, i32* %11, align 4
  br label %67

109:                                              ; preds = %67
  %110 = load i32, i32* %8, align 4
  %111 = call i32 (i8*, ...) @printf(i8* getelementptr inbounds ([4 x i8], [4 x i8]* @.str.1, i64 0, i64 0), i32 %110)
  %112 = load i32, i32* %9, align 4
  %113 = add nsw i32 %112, -1
  store i32 %113, i32* %9, align 4
  br label %39

114:                                              ; preds = %39
  ret i32 0
}

declare dso_local i32 @__isoc99_scanf(i8*, ...) #1

declare dso_local i32 @printf(i8*, ...) #1


!llvm.module.flags = !{!0}
!llvm.ident = !{!1}

!0 = !{i32 1, !"wchar_size", i32 4}
!1 = !{!"clang version 10.0.0-4ubuntu1 "}
